target datalayout = "e-m:e-p270:32:32-p271:32:32-p272:64:64-i64:64-i128:128-f80:128-n8:16:32:64-S128"
target triple = "x86_64-pc-linux-gnu"

%"class.(anonymous namespace)::MarrHildrethHashImpl" = type <{ %"class.cv::img_hash::ImgHashBase::ImgHashImpl", float, [4 x i8], %"class.cv::Mat", %"class.cv::Mat", %"class.cv::Mat", %"class.cv::Mat", %"class.cv::Mat", %"class.cv::Mat", %"class.cv::Mat", float, [4 x i8] }>
%"class.cv::img_hash::ImgHashBase::ImgHashImpl" = type { ptr }
%"class.cv::Mat" = type { i32, i32, i32, i32, ptr, ptr, ptr, ptr, ptr, ptr, %"struct.cv::MatSize", %"struct.cv::MatStep" }
%"struct.cv::MatSize" = type { ptr }
%"struct.cv::MatStep" = type { ptr, [2 x i64] }

; Function Attrs: mustprogress nounwind uwtable
define linkonce_odr hidden void @_ZN2cv8img_hash11ImgHashBase11ImgHashImplD2Ev(ptr noundef nonnull align 8 dereferenceable(8) %0) unnamed_addr #7 comdat align 2 {
  %2 = alloca ptr, align 8
  store ptr %0, ptr %2, align 8, !tbaa !8
  ret void
}

; Function Attrs: mustprogress nounwind uwtable
define internal void @_ZN12_GLOBAL__N_120MarrHildrethHashImplD2Ev(ptr noundef nonnull align 8 dereferenceable(696) %0) unnamed_addr #7 align 2 {
  %2 = alloca ptr, align 8
  store ptr %0, ptr %2, align 8, !tbaa !10
  %3 = load ptr, ptr %2, align 8
  %4 = getelementptr inbounds nuw %"class.(anonymous namespace)::MarrHildrethHashImpl", ptr %3, i32 0, i32 9
  call void @_ZN2cv3MatD1Ev(ptr noundef nonnull align 8 dereferenceable(96) %4) #3
  %5 = getelementptr inbounds nuw %"class.(anonymous namespace)::MarrHildrethHashImpl", ptr %3, i32 0, i32 8
  call void @_ZN2cv3MatD1Ev(ptr noundef nonnull align 8 dereferenceable(96) %5) #3
  %6 = getelementptr inbounds nuw %"class.(anonymous namespace)::MarrHildrethHashImpl", ptr %3, i32 0, i32 7
  call void @_ZN2cv3MatD1Ev(ptr noundef nonnull align 8 dereferenceable(96) %6) #3
  %7 = getelementptr inbounds nuw %"class.(anonymous namespace)::MarrHildrethHashImpl", ptr %3, i32 0, i32 6
  call void @_ZN2cv3MatD1Ev(ptr noundef nonnull align 8 dereferenceable(96) %7) #3
  %8 = getelementptr inbounds nuw %"class.(anonymous namespace)::MarrHildrethHashImpl", ptr %3, i32 0, i32 5
  call void @_ZN2cv3MatD1Ev(ptr noundef nonnull align 8 dereferenceable(96) %8) #3
  %9 = getelementptr inbounds nuw %"class.(anonymous namespace)::MarrHildrethHashImpl", ptr %3, i32 0, i32 4
  call void @_ZN2cv3MatD1Ev(ptr noundef nonnull align 8 dereferenceable(96) %9) #3
  %10 = getelementptr inbounds nuw %"class.(anonymous namespace)::MarrHildrethHashImpl", ptr %3, i32 0, i32 3
  call void @_ZN2cv3MatD1Ev(ptr noundef nonnull align 8 dereferenceable(96) %10) #3
  call void @_ZN2cv8img_hash11ImgHashBase11ImgHashImplD2Ev(ptr noundef nonnull align 8 dereferenceable(8) %3) #3
  ret void
}