; Function Attrs: mustprogress nounwind uwtable
define internal void @_ZN12_GLOBAL__N_120MarrHildrethHashImplD2Ev(ptr noundef nonnull align 8 dereferenceable(696) %0) unnamed_addr #7 align 2 {
  %2 = getelementptr inbounds nuw i8, ptr %0, i64 592
  tail call void @_ZN2cv3MatD1Ev(ptr noundef nonnull align 8 dereferenceable(96) %2) #19
  %3 = getelementptr inbounds nuw i8, ptr %0, i64 496
  tail call void @_ZN2cv3MatD1Ev(ptr noundef nonnull align 8 dereferenceable(96) %3) #19
  %4 = getelementptr inbounds nuw i8, ptr %0, i64 400
  tail call void @_ZN2cv3MatD1Ev(ptr noundef nonnull align 8 dereferenceable(96) %4) #19
  %5 = getelementptr inbounds nuw i8, ptr %0, i64 304
  tail call void @_ZN2cv3MatD1Ev(ptr noundef nonnull align 8 dereferenceable(96) %5) #19
  %6 = getelementptr inbounds nuw i8, ptr %0, i64 208
  tail call void @_ZN2cv3MatD1Ev(ptr noundef nonnull align 8 dereferenceable(96) %6) #19
  %7 = getelementptr inbounds nuw i8, ptr %0, i64 112
  tail call void @_ZN2cv3MatD1Ev(ptr noundef nonnull align 8 dereferenceable(96) %7) #19
  %8 = getelementptr inbounds nuw i8, ptr %0, i64 16
  tail call void @_ZN2cv3MatD1Ev(ptr noundef nonnull align 8 dereferenceable(96) %8) #19
  ret void
}